; Function Attrs: nounwind uwtable
define dso_local i32 @Curl_cf_def_conn_keep_alive(ptr noundef readonly captures(none) %0, ptr noundef %1) local_unnamed_addr #1 {
  %3 = getelementptr inbounds nuw i8, ptr %0, i64 8
  %4 = load ptr, ptr %3, align 8, !tbaa !8
  %.not = icmp eq ptr %4, null
  br i1 %.not, label %10, label %5

5:                                                ; preds = %2
  %6 = load ptr, ptr %4, align 8, !tbaa !15
  %7 = getelementptr inbounds nuw i8, ptr %6, i64 104
  %8 = load ptr, ptr %7, align 8, !tbaa !49
  %9 = tail call i32 %8(ptr noundef nonnull %4, ptr noundef %1) #12
  br label %10

10:                                               ; preds = %2, %5
  %11 = phi i32 [ %9, %5 ], [ 0, %2 ]
  ret i32 %11
}